; Function Attrs: mustprogress uwtable
define noundef zeroext i1 @_ZN5ImGui9TreeNodeVEPKvPKcP13__va_list_tag(ptr noundef %0, ptr noundef %1, ptr noundef %2) local_unnamed_addr #6 {
  %4 = alloca ptr, align 8
  %5 = alloca ptr, align 8
  %6 = load ptr, ptr @GImGui, align 8, !tbaa !3
  %7 = getelementptr inbounds nuw i8, ptr %6, i64 5016
  %8 = load ptr, ptr %7, align 8, !tbaa !8
  %9 = getelementptr inbounds nuw i8, ptr %8, i64 204
  store i8 1, ptr %9, align 4, !tbaa !130
  %10 = getelementptr inbounds nuw i8, ptr %8, i64 207
  %11 = load i8, ptr %10, align 1, !tbaa !152, !range !153, !noundef !154
  %12 = trunc nuw i8 %11 to i1
  br i1 %12, label %_ZN5ImGui11TreeNodeExVEPKviPKcP13__va_list_tag.exit, label %13

13:                                               ; preds = %3
  %14 = tail call noundef i32 @_ZN11ImGuiWindow5GetIDEPKv(ptr noundef nonnull align 8 dereferenceable(1061) %8, ptr noundef %0)
  call void @llvm.lifetime.start.p0(i64 8, ptr nonnull %4) #44
  call void @llvm.lifetime.start.p0(i64 8, ptr nonnull %5) #44
  call void @_Z27ImFormatStringToTempBufferVPPKcS1_S0_P13__va_list_tag(ptr noundef nonnull %4, ptr noundef nonnull %5, ptr noundef %1, ptr noundef %2)
  %15 = load ptr, ptr %4, align 8, !tbaa !169
  %16 = load ptr, ptr %5, align 8, !tbaa !169
  %17 = call noundef zeroext i1 @_ZN5ImGui16TreeNodeBehaviorEjiPKcS1_(i32 noundef %14, i32 noundef 0, ptr noundef %15, ptr noundef %16)
  call void @llvm.lifetime.end.p0(i64 8, ptr nonnull %5) #44
  call void @llvm.lifetime.end.p0(i64 8, ptr nonnull %4) #44
  br label %_ZN5ImGui11TreeNodeExVEPKviPKcP13__va_list_tag.exit

_ZN5ImGui11TreeNodeExVEPKviPKcP13__va_list_tag.exit: ; preds = %3, %13
  %.0.i = phi i1 [ %17, %13 ], [ false, %3 ]
  ret i1 %.0.i
}